; ModuleID = '40/3028.c'
source_filename = "40/3028.c"
target datalayout = "e-m:e-p270:32:32-p271:32:32-p272:64:64-i64:64-f80:128-n8:16:32:64-S128"
target triple = "x86_64-pc-linux-gnu"

@.str = private unnamed_addr constant [4 x i8] c"%lf\00", align 1
@.str.1 = private unnamed_addr constant [14 x i8] c"Invalid input\00", align 1
@.str.2 = private unnamed_addr constant [5 x i8] c"%.4f\00", align 1

; Function Attrs: noinline nounwind uwtable
define dso_local i32 @main() #0 {
  %1 = alloca i32, align 4
  %2 = alloca double, align 8
  %3 = alloca double, align 8
  %4 = alloca double, align 8
  %5 = alloca double, align 8
  %6 = alloca double, align 8
  %7 = alloca double, align 8
  %8 = alloca double, align 8
  %9 = alloca double, align 8
  store i32 0, i32* %1, align 4
  %10 = call i32 (i8*, ...) @__isoc99_scanf(i8* getelementptr inbounds ([4 x i8], [4 x i8]* @.str, i64 0, i64 0), double* %2)
  %11 = call i32 (i8*, ...) @__isoc99_scanf(i8* getelementptr inbounds ([4 x i8], [4 x i8]* @.str, i64 0, i64 0), double* %3)
  %12 = call i32 (i8*, ...) @__isoc99_scanf(i8* getelementptr inbounds ([4 x i8], [4 x i8]* @.str, i64 0, i64 0), double* %4)
  %13 = call i32 (i8*, ...) @__isoc99_scanf(i8* getelementptr inbounds ([4 x i8], [4 x i8]* @.str, i64 0, i64 0), double* %5)
  %14 = load double, double* %2, align 8
  %15 = load double, double* %3, align 8
  %16 = fadd double %14, %15
  %17 = load double, double* %4, align 8
  %18 = fadd double %16, %17
  %19 = load double, double* %5, align 8
  %20 = fadd double %18, %19
  %21 = fdiv double %20, 2.000000e+00
  store double %21, double* %6, align 8
  %22 = call i32 (i8*, ...) @__isoc99_scanf(i8* getelementptr inbounds ([4 x i8], [4 x i8]* @.str, i64 0, i64 0), double* %7)
  %23 = load double, double* %7, align 8
  %24 = fdiv double %23, 2.000000e+00
  store double %24, double* %7, align 8
  %25 = load double, double* %7, align 8
  %26 = fdiv double %25, 1.800000e+02
  %27 = fmul double %26, 0x400921FB4D12D84A
  store double %27, double* %7, align 8
  %28 = load double, double* %7, align 8
  %29 = call double @cos(double %28) #3
  store double %29, double* %9, align 8
  %30 = load double, double* %6, align 8
  %31 = load double, double* %2, align 8
  %32 = fsub double %30, %31
  %33 = load double, double* %6, align 8
  %34 = load double, double* %3, align 8
  %35 = fsub double %33, %34
  %36 = fmul double %32, %35
  %37 = load double, double* %6, align 8
  %38 = load double, double* %4, align 8
  %39 = fsub double %37, %38
  %40 = fmul double %36, %39
  %41 = load double, double* %6, align 8
  %42 = load double, double* %5, align 8
  %43 = fsub double %41, %42
  %44 = fmul double %40, %43
  %45 = load double, double* %2, align 8
  %46 = load double, double* %3, align 8
  %47 = fmul double %45, %46
  %48 = load double, double* %4, align 8
  %49 = fmul double %47, %48
  %50 = load double, double* %5, align 8
  %51 = fmul double %49, %50
  %52 = load double, double* %9, align 8
  %53 = call double @pow(double %52, double 2.000000e+00) #3
  %54 = fmul double %51, %53
  %55 = fsub double %44, %54
  %56 = fcmp olt double %55, 0.000000e+00
  br i1 %56, label %57, label %59

57:                                               ; preds = %0
  %58 = call i32 (i8*, ...) @printf(i8* getelementptr inbounds ([14 x i8], [14 x i8]* @.str.1, i64 0, i64 0))
  br label %89

59:                                               ; preds = %0
  %60 = load double, double* %6, align 8
  %61 = load double, double* %2, align 8
  %62 = fsub double %60, %61
  %63 = load double, double* %6, align 8
  %64 = load double, double* %3, align 8
  %65 = fsub double %63, %64
  %66 = fmul double %62, %65
  %67 = load double, double* %6, align 8
  %68 = load double, double* %4, align 8
  %69 = fsub double %67, %68
  %70 = fmul double %66, %69
  %71 = load double, double* %6, align 8
  %72 = load double, double* %5, align 8
  %73 = fsub double %71, %72
  %74 = fmul double %70, %73
  %75 = load double, double* %2, align 8
  %76 = load double, double* %3, align 8
  %77 = fmul double %75, %76
  %78 = load double, double* %4, align 8
  %79 = fmul double %77, %78
  %80 = load double, double* %5, align 8
  %81 = fmul double %79, %80
  %82 = load double, double* %9, align 8
  %83 = call double @pow(double %82, double 2.000000e+00) #3
  %84 = fmul double %81, %83
  %85 = fsub double %74, %84
  %86 = call double @sqrt(double %85) #3
  store double %86, double* %8, align 8
  %87 = load double, double* %8, align 8
  %88 = call i32 (i8*, ...) @printf(i8* getelementptr inbounds ([5 x i8], [5 x i8]* @.str.2, i64 0, i64 0), double %87)
  br label %89

89:                                               ; preds = %59, %57
  %90 = load i32, i32* %1, align 4
  ret i32 %90
}

declare dso_local i32 @__isoc99_scanf(i8*, ...) #1

; Function Attrs: nounwind
declare dso_local double @cos(double) #2

; Function Attrs: nounwind
declare dso_local double @pow(double, double) #2

declare dso_local i32 @printf(i8*, ...) #1

; Function Attrs: nounwind
declare dso_local double @sqrt(double) #2


!llvm.module.flags = !{!0}
!llvm.ident = !{!1}

!0 = !{i32 1, !"wchar_size", i32 4}
!1 = !{!"clang version 10.0.0-4ubuntu1 "}
